; Function Attrs: nounwind uwtable
define ptr @l_Std_Net_IPAddr_toString___boxed(ptr noundef %0) #0 {
  %2 = ptrtoint ptr %0 to i64
  %3 = and i64 %2, 1
  %.not.i.i = icmp eq i64 %3, 0
  br i1 %.not.i.i, label %7, label %4

4:                                                ; preds = %1
  %5 = lshr i64 %2, 1
  %6 = trunc i64 %5 to i32
  br label %lean_obj_tag.exit.i

7:                                                ; preds = %1
  %8 = getelementptr i8, ptr %0, i64 4
  %.val.i.i = load i32, ptr %8, align 4
  %9 = lshr i32 %.val.i.i, 24
  br label %lean_obj_tag.exit.i

lean_obj_tag.exit.i:                              ; preds = %7, %4
  %.0.i.i = phi i32 [ %6, %4 ], [ %9, %7 ]
  %10 = icmp eq i32 %.0.i.i, 0
  %11 = getelementptr inbounds nuw i8, ptr %0, i64 8
  %12 = load ptr, ptr %11, align 8, !tbaa !4
  br i1 %10, label %13, label %15

13:                                               ; preds = %lean_obj_tag.exit.i
  %14 = tail call ptr @lean_uv_ntop_v4(ptr noundef %12) #7
  br label %l_Std_Net_IPAddr_toString.exit

15:                                               ; preds = %lean_obj_tag.exit.i
  %16 = tail call ptr @lean_uv_ntop_v6(ptr noundef %12) #7
  br label %l_Std_Net_IPAddr_toString.exit

l_Std_Net_IPAddr_toString.exit:                   ; preds = %13, %15
  %.0.i = phi ptr [ %14, %13 ], [ %16, %15 ]
  br i1 %.not.i.i, label %17, label %lean_dec.exit

17:                                               ; preds = %l_Std_Net_IPAddr_toString.exit
  %18 = load i32, ptr %0, align 4, !tbaa !8
  %19 = icmp sgt i32 %18, 1
  br i1 %19, label %20, label %22, !prof !13

20:                                               ; preds = %17
  %21 = add nsw i32 %18, -1
  store i32 %21, ptr %0, align 4, !tbaa !8
  br label %lean_dec.exit

22:                                               ; preds = %17
  %.not.i = icmp eq i32 %18, 0
  br i1 %.not.i, label %lean_dec.exit, label %23

23:                                               ; preds = %22
  tail call void @lean_dec_ref_cold(ptr noundef nonnull %0) #7
  br label %lean_dec.exit

lean_dec.exit:                                    ; preds = %23, %22, %20, %l_Std_Net_IPAddr_toString.exit
  ret ptr %.0.i
}